target datalayout = "e-m:e-p270:32:32-p271:32:32-p272:64:64-i64:64-i128:128-f80:128-n8:16:32:64-S128"
target triple = "x86_64-pc-linux-gnu"

%"class.clang::QualType" = type { %"class.llvm::PointerIntPair" }
%"class.llvm::PointerIntPair" = type { %"struct.llvm::detail::PunnedPointer" }
%"struct.llvm::detail::PunnedPointer" = type { [8 x i8] }
%"class.llvm::SmallVectorBase" = type { ptr, i32, i32 }
%"class.clang::CanQual" = type { %"class.clang::QualType" }
%"class.llvm::ArrayRef" = type { ptr, i64 }
%"class.clang::Qualifiers" = type { i64 }
%"class.clang::QualifiersAndAtomic" = type <{ %"class.clang::Qualifiers", i8, [7 x i8] }>
%"class.(anonymous namespace)::BuiltinOperatorOverloadBuilder" = type <{ ptr, %"class.llvm::ArrayRef", %"class.clang::QualifiersAndAtomic", i8, [7 x i8], ptr, ptr, %"class.llvm::SmallVector.1336", i32, i32, i32, i32, i32, i32, i32, [4 x i8] }>
%"class.llvm::SmallVector.1336" = type { %"class.llvm::SmallVectorImpl.1337", %"struct.llvm::SmallVectorStorage.1340" }
%"class.llvm::SmallVectorImpl.1337" = type { %"class.llvm::SmallVectorTemplateBase.1338" }
%"class.llvm::SmallVectorTemplateBase.1338" = type { %"class.llvm::SmallVectorTemplateCommon.1339" }
%"class.llvm::SmallVectorTemplateCommon.1339" = type { %"class.llvm::SmallVectorBase" }
%"struct.llvm::SmallVectorStorage.1340" = type { [208 x i8] }

; Function Attrs: mustprogress nounwind uwtable
define linkonce_odr hidden noundef ptr @_ZN4llvm25SmallVectorTemplateCommonIN5clang7CanQualINS1_4TypeEEEvE5beginEv(ptr noundef nonnull align 8 dereferenceable(16) %0) #0 comdat align 2 {
  %2 = alloca ptr, align 8
  store ptr %0, ptr %2, align 8
  %3 = load ptr, ptr %2, align 8
  %4 = getelementptr inbounds nuw %"class.llvm::SmallVectorBase", ptr %3, i32 0, i32 0
  %5 = load ptr, ptr %4, align 8
  ret ptr %5
}

; Function Attrs: mustprogress nounwind uwtable
define linkonce_odr hidden i64 @_ZNK5clang7CanQualINS_4TypeEEcvNS_8QualTypeEEv(ptr noundef nonnull align 8 dereferenceable(8) %0) #0 comdat align 2 {
  %2 = alloca %"class.clang::QualType", align 8
  %3 = alloca ptr, align 8
  store ptr %0, ptr %3, align 8
  %4 = load ptr, ptr %3, align 8
  %5 = getelementptr inbounds nuw %"class.clang::CanQual", ptr %4, i32 0, i32 0
  call void @llvm.memcpy.p0.p0.i64(ptr align 8 %2, ptr align 8 %5, i64 8, i1 false)
  %6 = getelementptr inbounds nuw %"class.clang::QualType", ptr %2, i32 0, i32 0
  %7 = getelementptr inbounds nuw %"class.llvm::PointerIntPair", ptr %6, i32 0, i32 0
  %8 = getelementptr inbounds nuw %"struct.llvm::detail::PunnedPointer", ptr %7, i32 0, i32 0
  %9 = load i64, ptr %8, align 8
  ret i64 %9
}

; Function Attrs: mustprogress nounwind uwtable
define linkonce_odr hidden noundef nonnull align 8 dereferenceable(8) ptr @_ZN4llvm25SmallVectorTemplateCommonIN5clang7CanQualINS1_4TypeEEEvEixEm(ptr noundef nonnull align 8 dereferenceable(16) %0, i64 noundef %1) #0 comdat align 2 {
  %3 = alloca ptr, align 8
  %4 = alloca i64, align 8
  store ptr %0, ptr %3, align 8
  store i64 %1, ptr %4, align 8
  %5 = load ptr, ptr %3, align 8
  %6 = call noundef ptr @_ZN4llvm25SmallVectorTemplateCommonIN5clang7CanQualINS1_4TypeEEEvE5beginEv(ptr noundef nonnull align 8 dereferenceable(16) %5)
  %7 = load i64, ptr %4, align 8
  %8 = getelementptr inbounds %"class.clang::CanQual", ptr %6, i64 %7
  ret ptr %8
}

; Function Attrs: mustprogress nounwind uwtable
define internal void @_ZN12_GLOBAL__N_130BuiltinOperatorOverloadBuilder35addBinaryBitwiseArithmeticOverloadsEv(ptr noundef nonnull align 8 dereferenceable(316) %0) #0 align 2 {
  %2 = alloca ptr, align 8
  %3 = alloca i32, align 4
  %4 = alloca i32, align 4
  %5 = alloca [2 x %"class.clang::QualType"], align 16
  %6 = alloca %"class.llvm::ArrayRef", align 8
  store ptr %0, ptr %2, align 8
  %7 = load ptr, ptr %2, align 8
  %8 = getelementptr inbounds nuw %"class.(anonymous namespace)::BuiltinOperatorOverloadBuilder", ptr %7, i32 0, i32 3
  %9 = load i8, ptr %8, align 8
  %10 = trunc i8 %9 to i1
  br i1 %10, label %12, label %11

11:                                               ; preds = %1
  br label %63

12:                                               ; preds = %1
  %13 = getelementptr inbounds nuw %"class.(anonymous namespace)::BuiltinOperatorOverloadBuilder", ptr %7, i32 0, i32 10
  %14 = load i32, ptr %13, align 8
  store i32 %14, ptr %3, align 4
  br label %15

15:                                               ; preds = %60, %12
  %16 = load i32, ptr %3, align 4
  %17 = getelementptr inbounds nuw %"class.(anonymous namespace)::BuiltinOperatorOverloadBuilder", ptr %7, i32 0, i32 11
  %18 = load i32, ptr %17, align 4
  %19 = icmp ult i32 %16, %18
  br i1 %19, label %20, label %63

20:                                               ; preds = %15
  %21 = getelementptr inbounds nuw %"class.(anonymous namespace)::BuiltinOperatorOverloadBuilder", ptr %7, i32 0, i32 10
  %22 = load i32, ptr %21, align 8
  store i32 %22, ptr %4, align 4
  br label %23

23:                                               ; preds = %56, %20
  %24 = load i32, ptr %4, align 4
  %25 = getelementptr inbounds nuw %"class.(anonymous namespace)::BuiltinOperatorOverloadBuilder", ptr %7, i32 0, i32 11
  %26 = load i32, ptr %25, align 4
  %27 = icmp ult i32 %24, %26
  br i1 %27, label %28, label %59

28:                                               ; preds = %23
  %29 = getelementptr inbounds nuw %"class.(anonymous namespace)::BuiltinOperatorOverloadBuilder", ptr %7, i32 0, i32 7
  %30 = load i32, ptr %3, align 4
  %31 = zext i32 %30 to i64
  %32 = call noundef nonnull align 8 dereferenceable(8) ptr @_ZN4llvm25SmallVectorTemplateCommonIN5clang7CanQualINS1_4TypeEEEvEixEm(ptr noundef nonnull align 8 dereferenceable(16) %29, i64 noundef %31)
  %33 = call i64 @_ZNK5clang7CanQualINS_4TypeEEcvNS_8QualTypeEEv(ptr noundef nonnull align 8 dereferenceable(8) %32)
  %34 = getelementptr inbounds nuw %"class.clang::QualType", ptr %5, i32 0, i32 0
  %35 = getelementptr inbounds nuw %"class.llvm::PointerIntPair", ptr %34, i32 0, i32 0
  %36 = getelementptr inbounds nuw %"struct.llvm::detail::PunnedPointer", ptr %35, i32 0, i32 0
  store i64 %33, ptr %36, align 8
  %37 = getelementptr inbounds %"class.clang::QualType", ptr %5, i64 1
  %38 = getelementptr inbounds nuw %"class.(anonymous namespace)::BuiltinOperatorOverloadBuilder", ptr %7, i32 0, i32 7
  %39 = load i32, ptr %4, align 4
  %40 = zext i32 %39 to i64
  %41 = call noundef nonnull align 8 dereferenceable(8) ptr @_ZN4llvm25SmallVectorTemplateCommonIN5clang7CanQualINS1_4TypeEEEvEixEm(ptr noundef nonnull align 8 dereferenceable(16) %38, i64 noundef %40)
  %42 = call i64 @_ZNK5clang7CanQualINS_4TypeEEcvNS_8QualTypeEEv(ptr noundef nonnull align 8 dereferenceable(8) %41)
  %43 = getelementptr inbounds nuw %"class.clang::QualType", ptr %37, i32 0, i32 0
  %44 = getelementptr inbounds nuw %"class.llvm::PointerIntPair", ptr %43, i32 0, i32 0
  %45 = getelementptr inbounds nuw %"struct.llvm::detail::PunnedPointer", ptr %44, i32 0, i32 0
  store i64 %42, ptr %45, align 8
  %46 = getelementptr inbounds nuw %"class.(anonymous namespace)::BuiltinOperatorOverloadBuilder", ptr %7, i32 0, i32 0
  %47 = load ptr, ptr %46, align 8
  %48 = getelementptr inbounds [2 x %"class.clang::QualType"], ptr %5, i64 0, i64 0
  %49 = getelementptr inbounds nuw %"class.(anonymous namespace)::BuiltinOperatorOverloadBuilder", ptr %7, i32 0, i32 1
  call void @llvm.memcpy.p0.p0.i64(ptr align 8 %6, ptr align 8 %49, i64 16, i1 false)
  %50 = getelementptr inbounds nuw %"class.(anonymous namespace)::BuiltinOperatorOverloadBuilder", ptr %7, i32 0, i32 6
  %51 = load ptr, ptr %50, align 8
  %52 = getelementptr inbounds nuw { ptr, i64 }, ptr %6, i32 0, i32 0
  %53 = load ptr, ptr %52, align 8
  %54 = getelementptr inbounds nuw { ptr, i64 }, ptr %6, i32 0, i32 1
  %55 = load i64, ptr %54, align 8
  call void @_ZN5clang4Sema19AddBuiltinCandidateEPNS_8QualTypeEN4llvm8ArrayRefIPNS_4ExprEEERNS_20OverloadCandidateSetEbj(ptr noundef nonnull align 8 dereferenceable(17560) %47, ptr noundef %48, ptr %53, i64 %55, ptr noundef nonnull align 8 dereferenceable(6636) %51, i1 noundef zeroext false, i32 noundef 0)
  br label %56

56:                                               ; preds = %28
  %57 = load i32, ptr %4, align 4
  %58 = add i32 %57, 1
  store i32 %58, ptr %4, align 4
  br label %23, !llvm.loop !50

59:                                               ; preds = %23
  br label %60

60:                                               ; preds = %59
  %61 = load i32, ptr %3, align 4
  %62 = add i32 %61, 1
  store i32 %62, ptr %3, align 4
  br label %15, !llvm.loop !51

63:                                               ; preds = %15, %11
  ret void
}