; Function Attrs: mustprogress nounwind uwtable
define internal fastcc void @_ZN12_GLOBAL__N_130BuiltinOperatorOverloadBuilder35addBinaryBitwiseArithmeticOverloadsEv(ptr nocapture noundef nonnull readonly align 8 dereferenceable(316) %0) unnamed_addr #4 align 2 {
  %2 = alloca [2 x %"class.clang::QualType"], align 16
  %3 = getelementptr inbounds nuw i8, ptr %0, i64 40
  %4 = load i8, ptr %3, align 8
  %5 = trunc i8 %4 to i1
  br i1 %5, label %6, label %.loopexit

6:                                                ; preds = %1
  %7 = getelementptr inbounds nuw i8, ptr %0, i64 296
  %8 = load i32, ptr %7, align 8
  %9 = getelementptr inbounds nuw i8, ptr %0, i64 300
  %10 = load i32, ptr %9, align 4
  %11 = icmp ult i32 %8, %10
  br i1 %11, label %.lr.ph11.split.preheader, label %.loopexit

.lr.ph11.split.preheader:                         ; preds = %6
  %12 = getelementptr inbounds nuw i8, ptr %0, i64 64
  %13 = getelementptr inbounds i8, ptr %2, i64 8
  %14 = getelementptr inbounds nuw i8, ptr %0, i64 8
  %.sroa.2.0..sroa_idx = getelementptr inbounds i8, ptr %0, i64 16
  %15 = getelementptr inbounds nuw i8, ptr %0, i64 56
  %16 = zext i32 %8 to i64
  br label %.lr.ph11.split

.lr.ph11.split:                                   ; preds = %.lr.ph11.split.preheader, %._crit_edge
  %17 = phi i32 [ %10, %.lr.ph11.split.preheader ], [ %30, %._crit_edge ]
  %indvars.iv14 = phi i64 [ %16, %.lr.ph11.split.preheader ], [ %indvars.iv.next15, %._crit_edge ]
  %18 = load i32, ptr %7, align 8
  %19 = icmp ult i32 %18, %17
  br i1 %19, label %.lr.ph, label %.lr.ph11.split.._crit_edge_crit_edge

.lr.ph11.split.._crit_edge_crit_edge:             ; preds = %.lr.ph11.split
  %.pre = zext i32 %17 to i64
  br label %._crit_edge

.lr.ph:                                           ; preds = %.lr.ph11.split
  %20 = zext i32 %18 to i64
  br label %21

21:                                               ; preds = %.lr.ph, %21
  %indvars.iv = phi i64 [ %20, %.lr.ph ], [ %indvars.iv.next, %21 ]
  %22 = load ptr, ptr %12, align 8
  %23 = getelementptr inbounds %"class.clang::CanQual", ptr %22, i64 %indvars.iv14
  %.sroa.0.0.copyload.i = load i64, ptr %23, align 8
  store i64 %.sroa.0.0.copyload.i, ptr %2, align 16
  %24 = getelementptr inbounds %"class.clang::CanQual", ptr %22, i64 %indvars.iv
  %.sroa.0.0.copyload.i7 = load i64, ptr %24, align 8
  store i64 %.sroa.0.0.copyload.i7, ptr %13, align 8
  %25 = load ptr, ptr %0, align 8
  %.sroa.0.0.copyload = load ptr, ptr %14, align 8
  %.sroa.2.0.copyload = load i64, ptr %.sroa.2.0..sroa_idx, align 8
  %26 = load ptr, ptr %15, align 8
  call void @_ZN5clang4Sema19AddBuiltinCandidateEPNS_8QualTypeEN4llvm8ArrayRefIPNS_4ExprEEERNS_20OverloadCandidateSetEbj(ptr noundef nonnull align 8 dereferenceable(17560) %25, ptr noundef nonnull %2, ptr %.sroa.0.0.copyload, i64 %.sroa.2.0.copyload, ptr noundef nonnull align 8 dereferenceable(6636) %26, i1 noundef zeroext false, i32 noundef 0)
  %indvars.iv.next = add nuw nsw i64 %indvars.iv, 1
  %27 = load i32, ptr %9, align 4
  %28 = zext i32 %27 to i64
  %29 = icmp ult i64 %indvars.iv.next, %28
  br i1 %29, label %21, label %._crit_edge, !llvm.loop !194

._crit_edge:                                      ; preds = %21, %.lr.ph11.split.._crit_edge_crit_edge
  %.pre-phi = phi i64 [ %.pre, %.lr.ph11.split.._crit_edge_crit_edge ], [ %28, %21 ]
  %30 = phi i32 [ %17, %.lr.ph11.split.._crit_edge_crit_edge ], [ %27, %21 ]
  %indvars.iv.next15 = add nuw nsw i64 %indvars.iv14, 1
  %31 = icmp ult i64 %indvars.iv.next15, %.pre-phi
  br i1 %31, label %.lr.ph11.split, label %.loopexit, !llvm.loop !195

.loopexit:                                        ; preds = %._crit_edge, %6, %1
  ret void
}